target datalayout = "e-m:e-p270:32:32-p271:32:32-p272:64:64-i64:64-i128:128-f80:128-n8:16:32:64-S128"
target triple = "x86_64-pc-linux-gnu"

%struct.rb_vm_struct = type { i64, %struct.anon.0, ptr, i64, %struct.ccan_list_head, i32, i8, i64, ptr, [5 x i64], i64, i64, i64, i64, i64, i64, i64, i64, i64, ptr, ptr, ptr, %struct.anon.4, ptr, i32, %struct.ccan_list_head, %union.pthread_mutex_t, i64, i64, i64, i64, i32, %struct.anon.5, ptr, ptr, ptr, ptr, ptr, ptr, ptr, ptr, i64, [1023 x ptr], %struct.anon.6 }
%struct.anon.0 = type { %struct.ccan_list_head, i32, i32, ptr, ptr, %struct.anon.1, %struct.anon.3 }
%struct.anon.1 = type { %union.pthread_mutex_t, ptr, i32, %union.pthread_cond_t, i8 }
%union.pthread_cond_t = type { %struct.__pthread_cond_s }
%struct.__pthread_cond_s = type { %union.__atomic_wide_counter, %union.__atomic_wide_counter, [2 x i32], [2 x i32], i32, i32, [2 x i32] }
%union.__atomic_wide_counter = type { i64 }
%struct.anon.3 = type { %union.pthread_mutex_t, ptr, i8, %union.pthread_cond_t, i32, i32, i32, i32, %struct.ccan_list_head, i32, %struct.ccan_list_head, %struct.ccan_list_head, %struct.ccan_list_head, i8, %union.pthread_cond_t, %union.pthread_cond_t, i8, i32, i32 }
%struct.anon.4 = type { [65 x i64] }
%struct.ccan_list_head = type { %struct.ccan_list_node }
%struct.ccan_list_node = type { ptr, ptr }
%union.pthread_mutex_t = type { %struct.__pthread_mutex_s }
%struct.__pthread_mutex_s = type { i32, i32, i32, i32, i32, i16, i16, %struct.__pthread_internal_list }
%struct.__pthread_internal_list = type { ptr, ptr }
%struct.anon.5 = type { ptr, ptr }
%struct.anon.6 = type { i64, i64, i64, i64 }
%struct.rb_objspace = type { %struct.anon.33, %struct.rb_gc_config, [3 x i8], %struct.anon.19, i32, i64, [5 x %struct.rb_heap_struct], i64, ptr, %struct.anon.34, %struct.mark_stack, i64, %struct.anon.35, ptr, %struct.anon.36, i64, %struct.anon.37, %struct.anon.38, %struct.anon.39, ptr, ptr, i64, ptr, i32, i64 }
%struct.anon.33 = type { i64, i64 }
%struct.rb_gc_config = type { i8 }
%struct.anon.19 = type { i16, [2 x i8] }
%struct.rb_heap_struct = type { i16, i64, i64, i64, i64, i64, i64, i64, i64, ptr, %struct.ccan_list_head, ptr, ptr, i64, ptr, i64, i64 }
%struct.anon.34 = type { i32 }
%struct.mark_stack = type { ptr, ptr, i32, i32, i64, i64 }
%struct.anon.35 = type { ptr, i64, i64, [2 x i64], i64, i64, i64 }
%struct.anon.36 = type { i32, i32, ptr, ptr, i64, i64, double, i64, i64, i64, i64, double, i64, i64, i64, i64, %struct.timespec, i64, %struct.timespec, i64, i64 }
%struct.timespec = type { i64, i64 }
%struct.anon.37 = type { i64, i32, i64, i64, i64, i64, i64, i64, i64 }
%struct.anon.38 = type { [31 x i64], [31 x i64], [31 x i64], [31 x i64], i64, ptr }
%struct.anon.39 = type { i64, i64 }
%struct.heap_page_body = type { %struct.heap_page_header }
%struct.heap_page_header = type { ptr }
%struct.heap_page = type { i16, i16, i16, i16, i16, [2 x i8], %struct.anon.20, ptr, ptr, ptr, i64, ptr, %struct.ccan_list_node, [26 x i64], [26 x i64], [26 x i64], [26 x i64], [26 x i64], [26 x i64], [52 x i64] }
%struct.anon.20 = type { i8, [3 x i8] }
%struct.gc_mark_func_data_struct = type { ptr, ptr }

@ruby_current_vm_ptr = external global ptr, align 8

; Function Attrs: inlinehint nounwind sspstrong uwtable
define internal i64 @check_rvalue_consistency(ptr noundef %0, i64 noundef %1) #2 {
  %3 = alloca ptr, align 8
  %4 = alloca i64, align 8
  store ptr %0, ptr %3, align 8, !tbaa !125
  store i64 %1, ptr %4, align 8, !tbaa !18
  %5 = load i64, ptr %4, align 8, !tbaa !18
  ret i64 %5
}

; Function Attrs: inlinehint nounwind sspstrong uwtable
define internal i32 @RVALUE_PINNED(ptr noundef %0, i64 noundef %1) #2 {
  %3 = alloca ptr, align 8
  %4 = alloca i64, align 8
  store ptr %0, ptr %3, align 8, !tbaa !125
  store i64 %1, ptr %4, align 8, !tbaa !18
  %5 = load ptr, ptr %3, align 8, !tbaa !125
  %6 = load i64, ptr %4, align 8, !tbaa !18
  %7 = call i64 @check_rvalue_consistency(ptr noundef %5, i64 noundef %6)
  %8 = load i64, ptr %4, align 8, !tbaa !18
  %9 = and i64 %8, -65536
  %10 = inttoptr i64 %9 to ptr
  %11 = getelementptr inbounds nuw %struct.heap_page_body, ptr %10, i32 0, i32 0
  %12 = getelementptr inbounds nuw %struct.heap_page_header, ptr %11, i32 0, i32 0
  %13 = load ptr, ptr %12, align 8, !tbaa !169
  %14 = getelementptr inbounds nuw %struct.heap_page, ptr %13, i32 0, i32 18
  %15 = getelementptr [26 x i64], ptr %14, i64 0, i64 0
  %16 = load i64, ptr %4, align 8, !tbaa !18
  %17 = and i64 %16, 65535
  %18 = udiv i64 %17, 40
  %19 = udiv i64 %18, 64
  %20 = getelementptr i64, ptr %15, i64 %19
  %21 = load i64, ptr %20, align 8, !tbaa !18
  %22 = load i64, ptr %4, align 8, !tbaa !18
  %23 = and i64 %22, 65535
  %24 = udiv i64 %23, 40
  %25 = and i64 %24, 63
  %26 = shl i64 1, %25
  %27 = and i64 %21, %26
  %28 = icmp ne i64 %27, 0
  %29 = zext i1 %28 to i32
  ret i32 %29
}

; Function Attrs: inlinehint nounwind sspstrong uwtable
define internal void @gc_pin(ptr noundef %0, i64 noundef %1) #2 {
  %3 = alloca ptr, align 8
  %4 = alloca i64, align 8
  store ptr %0, ptr %3, align 8, !tbaa !125
  store i64 %1, ptr %4, align 8, !tbaa !18
  %5 = load ptr, ptr %3, align 8, !tbaa !125
  %6 = getelementptr inbounds nuw %struct.rb_objspace, ptr %5, i32 0, i32 3
  %7 = load i16, ptr %6, align 4
  %8 = lshr i16 %7, 6
  %9 = and i16 %8, 1
  %10 = zext i16 %9 to i32
  %11 = icmp ne i32 %10, 0
  %12 = xor i1 %11, true
  %13 = xor i1 %12, true
  %14 = zext i1 %13 to i32
  %15 = sext i32 %14 to i64
  %16 = call i64 @llvm.expect.i64(i64 %15, i64 0)
  %17 = icmp ne i64 %16, 0
  br i1 %17, label %18, label %82

18:                                               ; preds = %2
  %19 = load ptr, ptr %3, align 8, !tbaa !125
  %20 = getelementptr inbounds nuw %struct.rb_objspace, ptr %19, i32 0, i32 3
  %21 = load i16, ptr %20, align 4
  %22 = lshr i16 %21, 5
  %23 = and i16 %22, 1
  %24 = zext i16 %23 to i32
  %25 = icmp ne i32 %24, 0
  %26 = xor i1 %25, true
  %27 = xor i1 %26, true
  %28 = zext i1 %27 to i32
  %29 = sext i32 %28 to i64
  %30 = call i64 @llvm.expect.i64(i64 %29, i64 1)
  %31 = icmp ne i64 %30, 0
  br i1 %31, label %32, label %81

32:                                               ; preds = %18
  %33 = load ptr, ptr %3, align 8, !tbaa !125
  %34 = load i64, ptr %4, align 8, !tbaa !18
  %35 = call i32 @RVALUE_PINNED(ptr noundef %33, i64 noundef %34)
  %36 = icmp ne i32 %35, 0
  br i1 %36, label %80, label %37

37:                                               ; preds = %32
  %38 = load i64, ptr %4, align 8, !tbaa !18
  %39 = and i64 %38, -65536
  %40 = inttoptr i64 %39 to ptr
  %41 = getelementptr inbounds nuw %struct.heap_page_body, ptr %40, i32 0, i32 0
  %42 = getelementptr inbounds nuw %struct.heap_page_header, ptr %41, i32 0, i32 0
  %43 = load ptr, ptr %42, align 8, !tbaa !169
  %44 = getelementptr inbounds nuw %struct.heap_page, ptr %43, i32 0, i32 4
  %45 = load i16, ptr %44, align 8, !tbaa !537
  %46 = add i16 %45, 1
  store i16 %46, ptr %44, align 8, !tbaa !537
  %47 = load i64, ptr %4, align 8, !tbaa !18
  %48 = and i64 %47, -65536
  %49 = inttoptr i64 %48 to ptr
  %50 = getelementptr inbounds nuw %struct.heap_page_body, ptr %49, i32 0, i32 0
  %51 = getelementptr inbounds nuw %struct.heap_page_header, ptr %50, i32 0, i32 0
  %52 = load ptr, ptr %51, align 8, !tbaa !169
  %53 = getelementptr inbounds nuw %struct.heap_page, ptr %52, i32 0, i32 18
  %54 = getelementptr [26 x i64], ptr %53, i64 0, i64 0
  %55 = load i64, ptr %4, align 8, !tbaa !18
  %56 = and i64 %55, 65535
  %57 = udiv i64 %56, 40
  %58 = udiv i64 %57, 64
  %59 = getelementptr i64, ptr %54, i64 %58
  %60 = load i64, ptr %59, align 8, !tbaa !18
  %61 = load i64, ptr %4, align 8, !tbaa !18
  %62 = and i64 %61, 65535
  %63 = udiv i64 %62, 40
  %64 = and i64 %63, 63
  %65 = shl i64 1, %64
  %66 = or i64 %60, %65
  %67 = load i64, ptr %4, align 8, !tbaa !18
  %68 = and i64 %67, -65536
  %69 = inttoptr i64 %68 to ptr
  %70 = getelementptr inbounds nuw %struct.heap_page_body, ptr %69, i32 0, i32 0
  %71 = getelementptr inbounds nuw %struct.heap_page_header, ptr %70, i32 0, i32 0
  %72 = load ptr, ptr %71, align 8, !tbaa !169
  %73 = getelementptr inbounds nuw %struct.heap_page, ptr %72, i32 0, i32 18
  %74 = getelementptr [26 x i64], ptr %73, i64 0, i64 0
  %75 = load i64, ptr %4, align 8, !tbaa !18
  %76 = and i64 %75, 65535
  %77 = udiv i64 %76, 40
  %78 = udiv i64 %77, 64
  %79 = getelementptr i64, ptr %74, i64 %78
  store i64 %66, ptr %79, align 8, !tbaa !18
  br label %80

80:                                               ; preds = %37, %32
  br label %81

81:                                               ; preds = %80, %18
  br label %82

82:                                               ; preds = %81, %2
  ret void
}

; Function Attrs: inlinehint nounwind sspstrong uwtable
define internal void @gc_mark_and_pin(ptr noundef %0, i64 noundef %1) #2 {
  %3 = alloca ptr, align 8
  %4 = alloca i64, align 8
  store ptr %0, ptr %3, align 8, !tbaa !125
  store i64 %1, ptr %4, align 8, !tbaa !18
  %5 = load ptr, ptr %3, align 8, !tbaa !125
  %6 = load i64, ptr %4, align 8, !tbaa !18
  call void @gc_pin(ptr noundef %5, i64 noundef %6)
  %7 = load ptr, ptr %3, align 8, !tbaa !125
  %8 = load i64, ptr %4, align 8, !tbaa !18
  call void @gc_mark(ptr noundef %7, i64 noundef %8)
  ret void
}

; Function Attrs: inlinehint nounwind sspstrong willreturn memory(none) uwtable
define internal zeroext i1 @RB_IMMEDIATE_P(i64 noundef %0) #7 {
  %2 = alloca i64, align 8
  store i64 %0, ptr %2, align 8, !tbaa !18
  %3 = load i64, ptr %2, align 8, !tbaa !18
  %4 = and i64 %3, 7
  %5 = icmp ne i64 %4, 0
  ret i1 %5
}

; Function Attrs: nounwind sspstrong uwtable
define internal void @rb_gc_impl_mark_and_pin(ptr noundef %0, i64 noundef %1) #0 {
  %3 = alloca ptr, align 8
  %4 = alloca i64, align 8
  %5 = alloca ptr, align 8
  store ptr %0, ptr %3, align 8, !tbaa !76
  store i64 %1, ptr %4, align 8, !tbaa !18
  call void @llvm.lifetime.start.p0(i64 8, ptr %5) #6
  %6 = load ptr, ptr %3, align 8, !tbaa !76
  store ptr %6, ptr %5, align 8, !tbaa !125
  %7 = load ptr, ptr %5, align 8, !tbaa !125
  %8 = load i64, ptr %4, align 8, !tbaa !18
  call void @gc_mark_and_pin(ptr noundef %7, i64 noundef %8)
  call void @llvm.lifetime.end.p0(i64 8, ptr %5) #6
  ret void
}

; Function Attrs: inlinehint nounwind sspstrong uwtable
define internal ptr @rb_current_vm() #2 {
  %1 = load ptr, ptr @ruby_current_vm_ptr, align 8, !tbaa !74
  ret ptr %1
}

; Function Attrs: inlinehint nounwind sspstrong willreturn memory(none) uwtable
define internal zeroext i1 @RB_SPECIAL_CONST_P(i64 noundef %0) #7 {
  %2 = alloca i64, align 8
  store i64 %0, ptr %2, align 8, !tbaa !18
  %3 = load i64, ptr %2, align 8, !tbaa !18
  %4 = icmp eq i64 %3, 0
  br i1 %4, label %8, label %5

5:                                                ; preds = %1
  %6 = load i64, ptr %2, align 8, !tbaa !18
  %7 = call zeroext i1 @RB_IMMEDIATE_P(i64 noundef %6) #42
  br label %8

8:                                                ; preds = %5, %1
  %9 = phi i1 [ true, %1 ], [ %7, %5 ]
  ret i1 %9
}

; Function Attrs: inlinehint nounwind sspstrong uwtable
define internal void @gc_mark_and_pin_internal(i64 noundef %0) #2 {
  %2 = alloca i64, align 8
  %3 = alloca ptr, align 8
  %4 = alloca ptr, align 8
  %5 = alloca ptr, align 8
  store i64 %0, ptr %2, align 8, !tbaa !18
  br label %6

6:                                                ; preds = %1
  %7 = load i64, ptr %2, align 8, !tbaa !18
  %8 = call zeroext i1 @RB_SPECIAL_CONST_P(i64 noundef %7) #42
  br i1 %8, label %49, label %9

9:                                                ; preds = %6
  call void @llvm.lifetime.start.p0(i64 8, ptr %3) #6
  %10 = call ptr @rb_current_vm()
  store ptr %10, ptr %3, align 8, !tbaa !74
  call void @llvm.lifetime.start.p0(i64 8, ptr %4) #6
  %11 = load ptr, ptr %3, align 8, !tbaa !74
  %12 = getelementptr inbounds nuw %struct.rb_vm_struct, ptr %11, i32 0, i32 32
  %13 = getelementptr inbounds nuw %struct.anon.5, ptr %12, i32 0, i32 0
  %14 = load ptr, ptr %13, align 8, !tbaa !55
  store ptr %14, ptr %4, align 8, !tbaa !76
  %15 = load ptr, ptr %3, align 8, !tbaa !74
  %16 = getelementptr inbounds nuw %struct.rb_vm_struct, ptr %15, i32 0, i32 32
  %17 = getelementptr inbounds nuw %struct.anon.5, ptr %16, i32 0, i32 1
  %18 = load ptr, ptr %17, align 8, !tbaa !272
  %19 = icmp eq ptr %18, null
  %20 = xor i1 %19, true
  %21 = xor i1 %20, true
  %22 = zext i1 %21 to i32
  %23 = sext i32 %22 to i64
  %24 = call i64 @llvm.expect.i64(i64 %23, i64 1)
  %25 = icmp ne i64 %24, 0
  br i1 %25, label %26, label %29

26:                                               ; preds = %9
  %27 = load ptr, ptr %4, align 8, !tbaa !76
  %28 = load i64, ptr %2, align 8, !tbaa !18
  call void @rb_gc_impl_mark_and_pin(ptr noundef %27, i64 noundef %28)
  br label %48

29:                                               ; preds = %9
  call void @llvm.lifetime.start.p0(i64 8, ptr %5) #6
  %30 = load ptr, ptr %3, align 8, !tbaa !74
  %31 = getelementptr inbounds nuw %struct.rb_vm_struct, ptr %30, i32 0, i32 32
  %32 = getelementptr inbounds nuw %struct.anon.5, ptr %31, i32 0, i32 1
  %33 = load ptr, ptr %32, align 8, !tbaa !272
  store ptr %33, ptr %5, align 8, !tbaa !273
  %34 = load ptr, ptr %3, align 8, !tbaa !74
  %35 = getelementptr inbounds nuw %struct.rb_vm_struct, ptr %34, i32 0, i32 32
  %36 = getelementptr inbounds nuw %struct.anon.5, ptr %35, i32 0, i32 1
  store ptr null, ptr %36, align 8, !tbaa !272
  %37 = load ptr, ptr %5, align 8, !tbaa !273
  %38 = getelementptr inbounds nuw %struct.gc_mark_func_data_struct, ptr %37, i32 0, i32 1
  %39 = load ptr, ptr %38, align 8, !tbaa !274
  %40 = load i64, ptr %2, align 8, !tbaa !18
  %41 = load ptr, ptr %5, align 8, !tbaa !273
  %42 = getelementptr inbounds nuw %struct.gc_mark_func_data_struct, ptr %41, i32 0, i32 0
  %43 = load ptr, ptr %42, align 8, !tbaa !276
  call void %39(i64 noundef %40, ptr noundef %43)
  %44 = load ptr, ptr %5, align 8, !tbaa !273
  %45 = load ptr, ptr %3, align 8, !tbaa !74
  %46 = getelementptr inbounds nuw %struct.rb_vm_struct, ptr %45, i32 0, i32 32
  %47 = getelementptr inbounds nuw %struct.anon.5, ptr %46, i32 0, i32 1
  store ptr %44, ptr %47, align 8, !tbaa !272
  call void @llvm.lifetime.end.p0(i64 8, ptr %5) #6
  br label %48

48:                                               ; preds = %29, %26
  call void @llvm.lifetime.end.p0(i64 8, ptr %4) #6
  call void @llvm.lifetime.end.p0(i64 8, ptr %3) #6
  br label %49

49:                                               ; preds = %48, %6
  br label %50

50:                                               ; preds = %49
  ret void
}

; Function Attrs: nounwind sspstrong uwtable
define internal i32 @pin_key_pin_value(i64 noundef %0, i64 noundef %1, i64 noundef %2) #0 {
  %4 = alloca i64, align 8
  %5 = alloca i64, align 8
  %6 = alloca i64, align 8
  store i64 %0, ptr %4, align 8, !tbaa !18
  store i64 %1, ptr %5, align 8, !tbaa !18
  store i64 %2, ptr %6, align 8, !tbaa !18
  %7 = load i64, ptr %4, align 8, !tbaa !18
  call void @gc_mark_and_pin_internal(i64 noundef %7)
  %8 = load i64, ptr %5, align 8, !tbaa !18
  call void @gc_mark_and_pin_internal(i64 noundef %8)
  ret i32 0
}